; Function Attrs: mustprogress nofree norecurse nosync nounwind willreturn memory(argmem: read) uwtable
define zeroext i1 @lv_group_get_wrap(ptr noundef readonly %0) local_unnamed_addr #8 {
  %.not = icmp eq ptr %0, null
  br i1 %.not, label %7, label %2

2:                                                ; preds = %1
  %3 = getelementptr inbounds nuw i8, ptr %0, i64 56
  %4 = load i8, ptr %3, align 8
  %5 = and i8 %4, 8
  %6 = icmp ne i8 %5, 0
  br label %7

7:                                                ; preds = %1, %2
  %.0 = phi i1 [ %6, %2 ], [ false, %1 ]
  ret i1 %.0
}